target datalayout = "e-m:e-p270:32:32-p271:32:32-p272:64:64-i64:64-i128:128-f80:128-n8:16:32:64-S128"
target triple = "x86_64-pc-linux-gnu"

%struct.rb_printf_sfile = type { ptr, i64, i16, i16, %struct.rb_printf_sbuf, ptr, ptr }
%struct.rb_printf_sbuf = type { ptr, i64 }

; Function Attrs: nounwind sspstrong uwtable
define internal i32 @ruby_do_vsnprintf(ptr noundef %0, i64 noundef %1, ptr noundef %2, ptr noundef %3) #0 {
  %5 = alloca i32, align 4
  %6 = alloca ptr, align 8
  %7 = alloca i64, align 8
  %8 = alloca ptr, align 8
  %9 = alloca ptr, align 8
  %10 = alloca i64, align 8
  %11 = alloca %struct.rb_printf_sfile, align 8
  %12 = alloca i32, align 4
  store ptr %0, ptr %6, align 8, !tbaa !18
  store i64 %1, ptr %7, align 8, !tbaa !14
  store ptr %2, ptr %8, align 8, !tbaa !18
  store ptr %3, ptr %9, align 8, !tbaa !65
  call void @llvm.lifetime.start.p0(i64 8, ptr %10) #26
  call void @llvm.lifetime.start.p0(i64 56, ptr %11) #26
  %13 = getelementptr inbounds nuw %struct.rb_printf_sfile, ptr %11, i32 0, i32 2
  store i16 520, ptr %13, align 8, !tbaa !67
  %14 = load ptr, ptr %6, align 8, !tbaa !18
  %15 = getelementptr inbounds nuw %struct.rb_printf_sfile, ptr %11, i32 0, i32 0
  store ptr %14, ptr %15, align 8, !tbaa !71
  %16 = getelementptr inbounds nuw %struct.rb_printf_sfile, ptr %11, i32 0, i32 4
  %17 = getelementptr inbounds nuw %struct.rb_printf_sbuf, ptr %16, i32 0, i32 0
  store ptr %14, ptr %17, align 8, !tbaa !72
  %18 = load ptr, ptr %6, align 8, !tbaa !18
  %19 = icmp ne ptr %18, null
  br i1 %19, label %20, label %23

20:                                               ; preds = %4
  %21 = load i64, ptr %7, align 8, !tbaa !14
  %22 = sub i64 %21, 1
  br label %24

23:                                               ; preds = %4
  br label %24

24:                                               ; preds = %23, %20
  %25 = phi i64 [ %22, %20 ], [ 0, %23 ]
  %26 = getelementptr inbounds nuw %struct.rb_printf_sfile, ptr %11, i32 0, i32 1
  store i64 %25, ptr %26, align 8, !tbaa !73
  %27 = getelementptr inbounds nuw %struct.rb_printf_sfile, ptr %11, i32 0, i32 4
  %28 = getelementptr inbounds nuw %struct.rb_printf_sbuf, ptr %27, i32 0, i32 1
  store i64 %25, ptr %28, align 8, !tbaa !74
  %29 = getelementptr inbounds nuw %struct.rb_printf_sfile, ptr %11, i32 0, i32 5
  store ptr @BSD__sfvwrite, ptr %29, align 8, !tbaa !75
  %30 = getelementptr inbounds nuw %struct.rb_printf_sfile, ptr %11, i32 0, i32 6
  store ptr null, ptr %30, align 8, !tbaa !76
  %31 = load ptr, ptr %8, align 8, !tbaa !18
  %32 = load ptr, ptr %9, align 8, !tbaa !65
  %33 = call i64 @BSD_vfprintf(ptr noundef %11, ptr noundef %31, ptr noundef %32)
  store i64 %33, ptr %10, align 8, !tbaa !14
  %34 = load ptr, ptr %6, align 8, !tbaa !18
  %35 = icmp ne ptr %34, null
  br i1 %35, label %36, label %39

36:                                               ; preds = %24
  %37 = getelementptr inbounds nuw %struct.rb_printf_sfile, ptr %11, i32 0, i32 0
  %38 = load ptr, ptr %37, align 8, !tbaa !71
  store i8 0, ptr %38, align 1, !tbaa !20
  br label %39

39:                                               ; preds = %36, %24
  %40 = load i64, ptr %7, align 8, !tbaa !14
  %41 = icmp ugt i64 %40, 2147483647
  br i1 %41, label %42, label %43

42:                                               ; preds = %39
  store i32 2147483647, ptr %5, align 4
  store i32 1, ptr %12, align 4
  br label %46

43:                                               ; preds = %39
  %44 = load i64, ptr %10, align 8, !tbaa !14
  %45 = trunc i64 %44 to i32
  store i32 %45, ptr %5, align 4
  store i32 1, ptr %12, align 4
  br label %46

46:                                               ; preds = %43, %42
  call void @llvm.lifetime.end.p0(i64 56, ptr %11) #26
  call void @llvm.lifetime.end.p0(i64 8, ptr %10) #26
  %47 = load i32, ptr %5, align 4
  ret i32 %47
}

; Function Attrs: nounwind sspstrong uwtable
define dso_local i32 @ruby_vsnprintf(ptr noundef %0, i64 noundef %1, ptr noundef nonnull %2, ptr noundef %3) #0 {
  %5 = alloca i32, align 4
  %6 = alloca ptr, align 8
  %7 = alloca i64, align 8
  %8 = alloca ptr, align 8
  %9 = alloca ptr, align 8
  store ptr %0, ptr %6, align 8, !tbaa !18
  store i64 %1, ptr %7, align 8, !tbaa !14
  store ptr %2, ptr %8, align 8, !tbaa !18
  store ptr %3, ptr %9, align 8, !tbaa !65
  %10 = load ptr, ptr %6, align 8, !tbaa !18
  %11 = icmp ne ptr %10, null
  br i1 %11, label %12, label %16

12:                                               ; preds = %4
  %13 = load i64, ptr %7, align 8, !tbaa !14
  %14 = icmp slt i64 %13, 1
  br i1 %14, label %15, label %16

15:                                               ; preds = %12
  store i32 -1, ptr %5, align 4
  br label %22

16:                                               ; preds = %12, %4
  %17 = load ptr, ptr %6, align 8, !tbaa !18
  %18 = load i64, ptr %7, align 8, !tbaa !14
  %19 = load ptr, ptr %8, align 8, !tbaa !18
  %20 = load ptr, ptr %9, align 8, !tbaa !65
  %21 = call i32 @ruby_do_vsnprintf(ptr noundef %17, i64 noundef %18, ptr noundef %19, ptr noundef %20)
  store i32 %21, ptr %5, align 4
  br label %22

22:                                               ; preds = %16, %15
  %23 = load i32, ptr %5, align 4
  ret i32 %23
}