; Function Attrs: nounwind sspstrong uwtable
define dso_local i32 @ruby_vsnprintf(ptr noundef %0, i64 noundef %1, ptr noundef nonnull %2, ptr noundef %3) local_unnamed_addr #0 {
  %5 = alloca %struct.rb_printf_sfile, align 8
  %6 = icmp ne ptr %0, null
  %7 = icmp slt i64 %1, 1
  %or.cond = and i1 %6, %7
  br i1 %or.cond, label %22, label %8

8:                                                ; preds = %4
  call void @llvm.lifetime.start.p0(i64 56, ptr nonnull %5) #21
  %9 = getelementptr inbounds nuw i8, ptr %5, i64 16
  store i16 520, ptr %9, align 8, !tbaa !114
  store ptr %0, ptr %5, align 8, !tbaa !118
  %10 = getelementptr inbounds nuw i8, ptr %5, i64 24
  store ptr %0, ptr %10, align 8, !tbaa !119
  %.not.i = icmp eq ptr %0, null
  %11 = add i64 %1, -1
  %12 = select i1 %.not.i, i64 0, i64 %11
  %13 = getelementptr inbounds nuw i8, ptr %5, i64 8
  store i64 %12, ptr %13, align 8, !tbaa !120
  %14 = getelementptr inbounds nuw i8, ptr %5, i64 32
  store i64 %12, ptr %14, align 8, !tbaa !121
  %15 = getelementptr inbounds nuw i8, ptr %5, i64 40
  store ptr @BSD__sfvwrite, ptr %15, align 8, !tbaa !122
  %16 = getelementptr inbounds nuw i8, ptr %5, i64 48
  store ptr null, ptr %16, align 8, !tbaa !123
  %17 = call fastcc i64 @BSD_vfprintf(ptr noundef %5, ptr noundef nonnull %2, ptr noundef %3)
  br i1 %.not.i, label %ruby_do_vsnprintf.exit, label %18

18:                                               ; preds = %8
  %19 = load ptr, ptr %5, align 8, !tbaa !118
  store i8 0, ptr %19, align 1, !tbaa !21
  br label %ruby_do_vsnprintf.exit

ruby_do_vsnprintf.exit:                           ; preds = %8, %18
  %20 = icmp ugt i64 %1, 2147483647
  %21 = trunc i64 %17 to i32
  %.0.i = select i1 %20, i32 2147483647, i32 %21
  call void @llvm.lifetime.end.p0(i64 56, ptr nonnull %5) #21
  br label %22

22:                                               ; preds = %4, %ruby_do_vsnprintf.exit
  %.0 = phi i32 [ %.0.i, %ruby_do_vsnprintf.exit ], [ -1, %4 ]
  ret i32 %.0
}